target datalayout = "e-m:e-p270:32:32-p271:32:32-p272:64:64-i64:64-i128:128-f80:128-n8:16:32:64-S128"
target triple = "x86_64-pc-linux-gnu"

%struct.pmix_lock_t = type { i32, %struct.pmix_mutex_t, %union.pthread_cond_t, i8 }
%struct.pmix_mutex_t = type { %struct.pmix_object_t, %union.pthread_mutex_t }
%struct.pmix_object_t = type { %union.pthread_mutex_t, ptr, i32, %struct.pmix_tma }
%struct.pmix_tma = type { ptr, ptr, ptr, ptr, ptr, ptr, ptr, ptr }
%union.pthread_mutex_t = type { %struct.__pthread_mutex_s }
%struct.__pthread_mutex_s = type { i32, i32, i32, i32, i32, i16, i16, %struct.__pthread_internal_list }
%struct.__pthread_internal_list = type { ptr, ptr }
%union.pthread_cond_t = type { %struct.__pthread_cond_s }
%struct.__pthread_cond_s = type { %union.__atomic_wide_counter, %union.__atomic_wide_counter, [2 x i32], [2 x i32], i32, i32, [2 x i32] }
%union.__atomic_wide_counter = type { i64 }
%struct.pmix_value = type { i16, %union.anon.8 }
%union.anon.8 = type { %struct.pmix_envar_t }
%struct.pmix_envar_t = type { ptr, ptr, i8 }
%struct.timeval = type { i64, i64 }
%struct.pmix_list_t = type { %struct.pmix_object_t, %struct.pmix_list_item_t, i64 }
%struct.pmix_list_item_t = type { %struct.pmix_object_t, ptr, ptr, i32 }
%struct.pmix_query_caddy_t = type { %struct.pmix_object_t, %struct.event, %struct.pmix_lock_t, i8, i32, ptr, i64, ptr, i64, ptr, ptr, i64, i64, %struct.pmix_list_t, i64, i64, %struct.pmix_byte_object, ptr, ptr, ptr, ptr, ptr, ptr }
%struct.event = type { %struct.event_callback, %union.anon.0, i32, ptr, %union.anon.2, i16, i16, %struct.timeval }
%struct.event_callback = type { %struct.anon, i16, i8, i8, %union.anon, ptr }
%struct.anon = type { ptr, ptr }
%union.anon = type { ptr }
%union.anon.0 = type { %struct.anon.1 }
%struct.anon.1 = type { ptr, ptr }
%union.anon.2 = type { %struct.anon.3 }
%struct.anon.3 = type { %struct.anon.4, %struct.timeval }
%struct.anon.4 = type { ptr, ptr }
%struct.pmix_byte_object = type { ptr, i64 }
%struct.pmix_info = type { [512 x i8], i32, %struct.pmix_value }

; Function Attrs: inlinehint nounwind uwtable
define internal void @pmix_mutex_unlock(ptr noundef %0) #3 {
  %2 = alloca ptr, align 8
  store ptr %0, ptr %2, align 8, !tbaa !124
  %3 = load ptr, ptr %2, align 8, !tbaa !124
  %4 = getelementptr inbounds nuw %struct.pmix_mutex_t, ptr %3, i32 0, i32 1
  %5 = call i32 @pthread_mutex_unlock(ptr noundef %4) #10
  ret void
}

; Function Attrs: inlinehint nounwind uwtable
define internal void @pmix_atomic_wmb() #3 {
  fence release
  ret void
}

; Function Attrs: inlinehint nounwind uwtable
define internal void @pmix_mutex_lock(ptr noundef %0) #3 {
  %2 = alloca ptr, align 8
  store ptr %0, ptr %2, align 8, !tbaa !124
  %3 = load ptr, ptr %2, align 8, !tbaa !124
  %4 = getelementptr inbounds nuw %struct.pmix_mutex_t, ptr %3, i32 0, i32 1
  %5 = call i32 @pthread_mutex_lock(ptr noundef %4) #10
  ret void
}

; Function Attrs: inlinehint nounwind uwtable
define internal void @pmix_atomic_rmb() #3 {
  fence acquire
  ret void
}

; Function Attrs: nounwind uwtable
define internal void @myvalcb(i32 noundef %0, ptr noundef %1, i64 noundef %2, ptr noundef %3) #0 {
  %5 = alloca i32, align 4
  %6 = alloca ptr, align 8
  %7 = alloca i64, align 8
  %8 = alloca ptr, align 8
  %9 = alloca ptr, align 8
  %10 = alloca i64, align 8
  store i32 %0, ptr %5, align 4, !tbaa !12
  store ptr %1, ptr %6, align 8, !tbaa !3
  store i64 %2, ptr %7, align 8, !tbaa !8
  store ptr %3, ptr %8, align 8, !tbaa !63
  call void @llvm.lifetime.start.p0(i64 8, ptr %9) #10
  %11 = load ptr, ptr %8, align 8, !tbaa !63
  store ptr %11, ptr %9, align 8, !tbaa !63
  call void @llvm.lifetime.start.p0(i64 8, ptr %10) #10
  call void @pmix_atomic_rmb()
  %12 = load i32, ptr %5, align 4, !tbaa !12
  %13 = load ptr, ptr %9, align 8, !tbaa !63
  %14 = getelementptr inbounds nuw %struct.pmix_query_caddy_t, ptr %13, i32 0, i32 4
  store i32 %12, ptr %14, align 4, !tbaa !45
  %15 = load i32, ptr %5, align 4, !tbaa !12
  %16 = icmp eq i32 0, %15
  br i1 %16, label %17, label %48

17:                                               ; preds = %4
  %18 = load ptr, ptr %6, align 8, !tbaa !3
  %19 = icmp ne ptr null, %18
  br i1 %19, label %20, label %48

20:                                               ; preds = %17
  %21 = load i64, ptr %7, align 8, !tbaa !8
  %22 = load ptr, ptr %9, align 8, !tbaa !63
  %23 = getelementptr inbounds nuw %struct.pmix_query_caddy_t, ptr %22, i32 0, i32 11
  store i64 %21, ptr %23, align 8, !tbaa !140
  %24 = load ptr, ptr %9, align 8, !tbaa !63
  %25 = getelementptr inbounds nuw %struct.pmix_query_caddy_t, ptr %24, i32 0, i32 11
  %26 = load i64, ptr %25, align 8, !tbaa !140
  %27 = call ptr @PMIx_Info_create(i64 noundef %26)
  %28 = load ptr, ptr %9, align 8, !tbaa !63
  %29 = getelementptr inbounds nuw %struct.pmix_query_caddy_t, ptr %28, i32 0, i32 9
  store ptr %27, ptr %29, align 8, !tbaa !139
  store i64 0, ptr %10, align 8, !tbaa !8
  br label %30

30:                                               ; preds = %44, %20
  %31 = load i64, ptr %10, align 8, !tbaa !8
  %32 = load i64, ptr %7, align 8, !tbaa !8
  %33 = icmp ult i64 %31, %32
  br i1 %33, label %34, label %47

34:                                               ; preds = %30
  %35 = load ptr, ptr %9, align 8, !tbaa !63
  %36 = getelementptr inbounds nuw %struct.pmix_query_caddy_t, ptr %35, i32 0, i32 9
  %37 = load ptr, ptr %36, align 8, !tbaa !139
  %38 = load i64, ptr %10, align 8, !tbaa !8
  %39 = getelementptr inbounds nuw %struct.pmix_info, ptr %37, i64 %38
  %40 = load ptr, ptr %6, align 8, !tbaa !3
  %41 = load i64, ptr %10, align 8, !tbaa !8
  %42 = getelementptr inbounds nuw %struct.pmix_info, ptr %40, i64 %41
  %43 = call i32 @PMIx_Info_xfer(ptr noundef %39, ptr noundef %42)
  br label %44

44:                                               ; preds = %34
  %45 = load i64, ptr %10, align 8, !tbaa !8
  %46 = add i64 %45, 1
  store i64 %46, ptr %10, align 8, !tbaa !8
  br label %30, !llvm.loop !145

47:                                               ; preds = %30
  br label %48

48:                                               ; preds = %47, %17, %4
  br label %49

49:                                               ; preds = %48
  %50 = load ptr, ptr %9, align 8, !tbaa !63
  %51 = getelementptr inbounds nuw %struct.pmix_query_caddy_t, ptr %50, i32 0, i32 2
  %52 = getelementptr inbounds nuw %struct.pmix_lock_t, ptr %51, i32 0, i32 1
  call void @pmix_mutex_lock(ptr noundef %52)
  %53 = load ptr, ptr %9, align 8, !tbaa !63
  %54 = getelementptr inbounds nuw %struct.pmix_query_caddy_t, ptr %53, i32 0, i32 2
  %55 = getelementptr inbounds nuw %struct.pmix_lock_t, ptr %54, i32 0, i32 3
  store volatile i8 0, ptr %55, align 8, !tbaa !22
  call void @pmix_atomic_wmb()
  %56 = load ptr, ptr %9, align 8, !tbaa !63
  %57 = getelementptr inbounds nuw %struct.pmix_query_caddy_t, ptr %56, i32 0, i32 2
  %58 = getelementptr inbounds nuw %struct.pmix_lock_t, ptr %57, i32 0, i32 2
  %59 = call i32 @pthread_cond_broadcast(ptr noundef %58) #10
  %60 = load ptr, ptr %9, align 8, !tbaa !63
  %61 = getelementptr inbounds nuw %struct.pmix_query_caddy_t, ptr %60, i32 0, i32 2
  %62 = getelementptr inbounds nuw %struct.pmix_lock_t, ptr %61, i32 0, i32 1
  call void @pmix_mutex_unlock(ptr noundef %62)
  br label %63

63:                                               ; preds = %49
  br label %64

64:                                               ; preds = %63
  call void @llvm.lifetime.end.p0(i64 8, ptr %10) #10
  call void @llvm.lifetime.end.p0(i64 8, ptr %9) #10
  ret void
}