; Function Attrs: nounwind uwtable
define internal void @myvalcb(i32 noundef %0, ptr noundef %1, i64 noundef %2, ptr noundef initializes((476, 480)) %3) #0 {
  fence acquire
  %5 = getelementptr inbounds nuw i8, ptr %3, i64 476
  store i32 %0, ptr %5, align 4, !tbaa !44
  %6 = icmp eq i32 %0, 0
  %7 = icmp ne ptr %1, null
  %or.cond = and i1 %6, %7
  br i1 %or.cond, label %8, label %.loopexit

8:                                                ; preds = %4
  %9 = getelementptr inbounds nuw i8, ptr %3, i64 528
  store i64 %2, ptr %9, align 8, !tbaa !118
  %10 = tail call ptr @PMIx_Info_create(i64 noundef %2) #12
  %11 = getelementptr inbounds nuw i8, ptr %3, i64 512
  store ptr %10, ptr %11, align 8, !tbaa !117
  %.not = icmp eq i64 %2, 0
  br i1 %.not, label %.loopexit, label %.lr.ph

.lr.ph:                                           ; preds = %8, %.lr.ph
  %.021 = phi i64 [ %16, %.lr.ph ], [ 0, %8 ]
  %12 = load ptr, ptr %11, align 8, !tbaa !117
  %13 = getelementptr inbounds nuw %struct.pmix_info, ptr %12, i64 %.021
  %14 = getelementptr inbounds nuw %struct.pmix_info, ptr %1, i64 %.021
  %15 = tail call i32 @PMIx_Info_xfer(ptr noundef %13, ptr noundef nonnull %14) #12
  %16 = add nuw i64 %.021, 1
  %exitcond.not = icmp eq i64 %16, %2
  br i1 %exitcond.not, label %.loopexit, label %.lr.ph, !llvm.loop !123

.loopexit:                                        ; preds = %.lr.ph, %8, %4
  %17 = getelementptr inbounds nuw i8, ptr %3, i64 376
  %18 = tail call i32 @pthread_mutex_lock(ptr noundef nonnull %17) #12
  %19 = getelementptr inbounds nuw i8, ptr %3, i64 464
  store volatile i8 0, ptr %19, align 8, !tbaa !21
  fence release
  %20 = getelementptr inbounds nuw i8, ptr %3, i64 416
  %21 = tail call i32 @pthread_cond_broadcast(ptr noundef nonnull %20) #12
  %22 = tail call i32 @pthread_mutex_unlock(ptr noundef nonnull %17) #12
  ret void
}